target datalayout = "e-m:e-p270:32:32-p271:32:32-p272:64:64-i64:64-i128:128-f80:128-n8:16:32:64-S128"
target triple = "x86_64-pc-linux-gnu"

; Function Attrs: inlinehint nounwind uwtable
define internal zeroext i8 @clip_8b(i32 noundef %0) #4 {
  %2 = alloca i32, align 4
  store i32 %0, ptr %2, align 4, !tbaa !9
  %3 = load i32, ptr %2, align 4, !tbaa !9
  %4 = and i32 %3, -256
  %5 = icmp ne i32 %4, 0
  br i1 %5, label %8, label %6

6:                                                ; preds = %1
  %7 = load i32, ptr %2, align 4, !tbaa !9
  br label %12

8:                                                ; preds = %1
  %9 = load i32, ptr %2, align 4, !tbaa !9
  %10 = icmp slt i32 %9, 0
  %11 = select i1 %10, i32 0, i32 255
  br label %12

12:                                               ; preds = %8, %6
  %13 = phi i32 [ %7, %6 ], [ %11, %8 ]
  %14 = trunc i32 %13 to i8
  ret i8 %14
}

; Function Attrs: nounwind uwtable
define internal void @TransformDC_C(ptr noalias noundef %0, ptr noalias noundef %1) #0 {
  %3 = alloca ptr, align 8
  %4 = alloca ptr, align 8
  %5 = alloca i32, align 4
  %6 = alloca i32, align 4
  %7 = alloca i32, align 4
  store ptr %0, ptr %3, align 8, !tbaa !7
  store ptr %1, ptr %4, align 8, !tbaa !16
  call void @llvm.lifetime.start.p0(i64 4, ptr %5) #7
  %8 = load ptr, ptr %3, align 8, !tbaa !7
  %9 = getelementptr inbounds i16, ptr %8, i64 0
  %10 = load i16, ptr %9, align 2, !tbaa !11
  %11 = sext i16 %10 to i32
  %12 = add nsw i32 %11, 4
  store i32 %12, ptr %5, align 4, !tbaa !9
  call void @llvm.lifetime.start.p0(i64 4, ptr %6) #7
  call void @llvm.lifetime.start.p0(i64 4, ptr %7) #7
  store i32 0, ptr %7, align 4, !tbaa !9
  br label %13

13:                                               ; preds = %45, %2
  %14 = load i32, ptr %7, align 4, !tbaa !9
  %15 = icmp slt i32 %14, 4
  br i1 %15, label %16, label %48

16:                                               ; preds = %13
  store i32 0, ptr %6, align 4, !tbaa !9
  br label %17

17:                                               ; preds = %41, %16
  %18 = load i32, ptr %6, align 4, !tbaa !9
  %19 = icmp slt i32 %18, 4
  br i1 %19, label %20, label %44

20:                                               ; preds = %17
  %21 = load ptr, ptr %4, align 8, !tbaa !16
  %22 = load i32, ptr %6, align 4, !tbaa !9
  %23 = load i32, ptr %7, align 4, !tbaa !9
  %24 = mul nsw i32 %23, 32
  %25 = add nsw i32 %22, %24
  %26 = sext i32 %25 to i64
  %27 = getelementptr inbounds i8, ptr %21, i64 %26
  %28 = load i8, ptr %27, align 1, !tbaa !18
  %29 = zext i8 %28 to i32
  %30 = load i32, ptr %5, align 4, !tbaa !9
  %31 = ashr i32 %30, 3
  %32 = add nsw i32 %29, %31
  %33 = call zeroext i8 @clip_8b(i32 noundef %32)
  %34 = load ptr, ptr %4, align 8, !tbaa !16
  %35 = load i32, ptr %6, align 4, !tbaa !9
  %36 = load i32, ptr %7, align 4, !tbaa !9
  %37 = mul nsw i32 %36, 32
  %38 = add nsw i32 %35, %37
  %39 = sext i32 %38 to i64
  %40 = getelementptr inbounds i8, ptr %34, i64 %39
  store i8 %33, ptr %40, align 1, !tbaa !18
  br label %41

41:                                               ; preds = %20
  %42 = load i32, ptr %6, align 4, !tbaa !9
  %43 = add nsw i32 %42, 1
  store i32 %43, ptr %6, align 4, !tbaa !9
  br label %17, !llvm.loop !19

44:                                               ; preds = %17
  br label %45

45:                                               ; preds = %44
  %46 = load i32, ptr %7, align 4, !tbaa !9
  %47 = add nsw i32 %46, 1
  store i32 %47, ptr %7, align 4, !tbaa !9
  br label %13, !llvm.loop !20

48:                                               ; preds = %13
  call void @llvm.lifetime.end.p0(i64 4, ptr %7) #7
  call void @llvm.lifetime.end.p0(i64 4, ptr %6) #7
  call void @llvm.lifetime.end.p0(i64 4, ptr %5) #7
  ret void
}