; Function Attrs: nofree norecurse nosync nounwind memory(argmem: readwrite) uwtable
define internal void @TransformDC_C(ptr noalias noundef readonly captures(none) %0, ptr noalias noundef captures(none) %1) #3 {
  %3 = load i16, ptr %0, align 2, !tbaa !7
  %4 = sext i16 %3 to i32
  %5 = add nsw i32 %4, 4
  %6 = ashr i32 %5, 3
  br label %.preheader

.preheader:                                       ; preds = %2, %15
  %indvars.iv15 = phi i64 [ 0, %2 ], [ %indvars.iv.next16, %15 ]
  %7 = shl nuw nsw i64 %indvars.iv15, 5
  %invariant.gep = getelementptr inbounds nuw i8, ptr %1, i64 %7
  br label %8

8:                                                ; preds = %.preheader, %8
  %indvars.iv = phi i64 [ 0, %.preheader ], [ %indvars.iv.next, %8 ]
  %gep = getelementptr inbounds nuw i8, ptr %invariant.gep, i64 %indvars.iv
  %9 = load i8, ptr %gep, align 1, !tbaa !14
  %10 = zext i8 %9 to i32
  %11 = add nsw i32 %6, %10
  %12 = tail call i32 @llvm.smax.i32(i32 range(i32 -268435456, 268435711) %11, i32 0)
  %13 = tail call i32 @llvm.umin.i32(i32 %12, i32 255)
  %14 = trunc nuw i32 %13 to i8
  store i8 %14, ptr %gep, align 1, !tbaa !14
  %indvars.iv.next = add nuw nsw i64 %indvars.iv, 1
  %exitcond.not = icmp eq i64 %indvars.iv.next, 4
  br i1 %exitcond.not, label %15, label %8, !llvm.loop !15

15:                                               ; preds = %8
  %indvars.iv.next16 = add nuw nsw i64 %indvars.iv15, 1
  %exitcond18.not = icmp eq i64 %indvars.iv.next16, 4
  br i1 %exitcond18.not, label %16, label %.preheader, !llvm.loop !16

16:                                               ; preds = %15
  ret void
}